target datalayout = "e-m:e-p270:32:32-p271:32:32-p272:64:64-i64:64-i128:128-f80:128-n8:16:32:64-S128"
target triple = "x86_64-pc-linux-gnu"

%"class.gmx::MttkData" = type { %"class.gmx::ICheckpointHelperClient", float, float, float, double, double, double, float, [3 x [3 x float]], float, float, float, ptr, ptr, %"class.std::__cxx11::basic_string" }
%"class.gmx::ICheckpointHelperClient" = type { ptr }
%"class.std::__cxx11::basic_string" = type { %"struct.std::__cxx11::basic_string<char>::_Alloc_hider", i64, %union.anon }
%"struct.std::__cxx11::basic_string<char>::_Alloc_hider" = type { ptr }
%union.anon = type { i64, [8 x i8] }
%"class.gmx::ISimulatorElement" = type { ptr }
%"class.gmx::MttkBoxScaling" = type { %"class.gmx::ISimulatorElement", float, ptr, ptr }

; Function Attrs: mustprogress nounwind uwtable
define noundef ptr @_ZN3gmx8MttkData13boxVelocitiesEv(ptr noundef nonnull align 8 dereferenceable(152) %0) #2 align 2 {
  %2 = alloca ptr, align 8
  store ptr %0, ptr %2, align 8, !tbaa !4
  %3 = load ptr, ptr %2, align 8
  %4 = getelementptr inbounds nuw %"class.gmx::MttkData", ptr %3, i32 0, i32 8
  %5 = getelementptr inbounds [3 x [3 x float]], ptr %4, i64 0, i64 0
  ret ptr %5
}

; Function Attrs: inlinehint mustprogress nounwind uwtable
define internal void @_ZL5msmulPA3_KffPA3_f(ptr noundef %0, float noundef %1, ptr noundef %2) #0 {
  %4 = alloca ptr, align 8
  %5 = alloca float, align 4
  %6 = alloca ptr, align 8
  store ptr %0, ptr %4, align 8, !tbaa !215
  store float %1, ptr %5, align 4, !tbaa !111
  store ptr %2, ptr %6, align 8, !tbaa !215
  %7 = load float, ptr %5, align 4, !tbaa !111
  %8 = load ptr, ptr %4, align 8, !tbaa !215
  %9 = getelementptr inbounds [3 x float], ptr %8, i64 0
  %10 = getelementptr inbounds [3 x float], ptr %9, i64 0, i64 0
  %11 = load float, ptr %10, align 4, !tbaa !111
  %12 = fmul float %7, %11
  %13 = load ptr, ptr %6, align 8, !tbaa !215
  %14 = getelementptr inbounds [3 x float], ptr %13, i64 0
  %15 = getelementptr inbounds [3 x float], ptr %14, i64 0, i64 0
  store float %12, ptr %15, align 4, !tbaa !111
  %16 = load float, ptr %5, align 4, !tbaa !111
  %17 = load ptr, ptr %4, align 8, !tbaa !215
  %18 = getelementptr inbounds [3 x float], ptr %17, i64 0
  %19 = getelementptr inbounds [3 x float], ptr %18, i64 0, i64 1
  %20 = load float, ptr %19, align 4, !tbaa !111
  %21 = fmul float %16, %20
  %22 = load ptr, ptr %6, align 8, !tbaa !215
  %23 = getelementptr inbounds [3 x float], ptr %22, i64 0
  %24 = getelementptr inbounds [3 x float], ptr %23, i64 0, i64 1
  store float %21, ptr %24, align 4, !tbaa !111
  %25 = load float, ptr %5, align 4, !tbaa !111
  %26 = load ptr, ptr %4, align 8, !tbaa !215
  %27 = getelementptr inbounds [3 x float], ptr %26, i64 0
  %28 = getelementptr inbounds [3 x float], ptr %27, i64 0, i64 2
  %29 = load float, ptr %28, align 4, !tbaa !111
  %30 = fmul float %25, %29
  %31 = load ptr, ptr %6, align 8, !tbaa !215
  %32 = getelementptr inbounds [3 x float], ptr %31, i64 0
  %33 = getelementptr inbounds [3 x float], ptr %32, i64 0, i64 2
  store float %30, ptr %33, align 4, !tbaa !111
  %34 = load float, ptr %5, align 4, !tbaa !111
  %35 = load ptr, ptr %4, align 8, !tbaa !215
  %36 = getelementptr inbounds [3 x float], ptr %35, i64 1
  %37 = getelementptr inbounds [3 x float], ptr %36, i64 0, i64 0
  %38 = load float, ptr %37, align 4, !tbaa !111
  %39 = fmul float %34, %38
  %40 = load ptr, ptr %6, align 8, !tbaa !215
  %41 = getelementptr inbounds [3 x float], ptr %40, i64 1
  %42 = getelementptr inbounds [3 x float], ptr %41, i64 0, i64 0
  store float %39, ptr %42, align 4, !tbaa !111
  %43 = load float, ptr %5, align 4, !tbaa !111
  %44 = load ptr, ptr %4, align 8, !tbaa !215
  %45 = getelementptr inbounds [3 x float], ptr %44, i64 1
  %46 = getelementptr inbounds [3 x float], ptr %45, i64 0, i64 1
  %47 = load float, ptr %46, align 4, !tbaa !111
  %48 = fmul float %43, %47
  %49 = load ptr, ptr %6, align 8, !tbaa !215
  %50 = getelementptr inbounds [3 x float], ptr %49, i64 1
  %51 = getelementptr inbounds [3 x float], ptr %50, i64 0, i64 1
  store float %48, ptr %51, align 4, !tbaa !111
  %52 = load float, ptr %5, align 4, !tbaa !111
  %53 = load ptr, ptr %4, align 8, !tbaa !215
  %54 = getelementptr inbounds [3 x float], ptr %53, i64 1
  %55 = getelementptr inbounds [3 x float], ptr %54, i64 0, i64 2
  %56 = load float, ptr %55, align 4, !tbaa !111
  %57 = fmul float %52, %56
  %58 = load ptr, ptr %6, align 8, !tbaa !215
  %59 = getelementptr inbounds [3 x float], ptr %58, i64 1
  %60 = getelementptr inbounds [3 x float], ptr %59, i64 0, i64 2
  store float %57, ptr %60, align 4, !tbaa !111
  %61 = load float, ptr %5, align 4, !tbaa !111
  %62 = load ptr, ptr %4, align 8, !tbaa !215
  %63 = getelementptr inbounds [3 x float], ptr %62, i64 2
  %64 = getelementptr inbounds [3 x float], ptr %63, i64 0, i64 0
  %65 = load float, ptr %64, align 4, !tbaa !111
  %66 = fmul float %61, %65
  %67 = load ptr, ptr %6, align 8, !tbaa !215
  %68 = getelementptr inbounds [3 x float], ptr %67, i64 2
  %69 = getelementptr inbounds [3 x float], ptr %68, i64 0, i64 0
  store float %66, ptr %69, align 4, !tbaa !111
  %70 = load float, ptr %5, align 4, !tbaa !111
  %71 = load ptr, ptr %4, align 8, !tbaa !215
  %72 = getelementptr inbounds [3 x float], ptr %71, i64 2
  %73 = getelementptr inbounds [3 x float], ptr %72, i64 0, i64 1
  %74 = load float, ptr %73, align 4, !tbaa !111
  %75 = fmul float %70, %74
  %76 = load ptr, ptr %6, align 8, !tbaa !215
  %77 = getelementptr inbounds [3 x float], ptr %76, i64 2
  %78 = getelementptr inbounds [3 x float], ptr %77, i64 0, i64 1
  store float %75, ptr %78, align 4, !tbaa !111
  %79 = load float, ptr %5, align 4, !tbaa !111
  %80 = load ptr, ptr %4, align 8, !tbaa !215
  %81 = getelementptr inbounds [3 x float], ptr %80, i64 2
  %82 = getelementptr inbounds [3 x float], ptr %81, i64 0, i64 2
  %83 = load float, ptr %82, align 4, !tbaa !111
  %84 = fmul float %79, %83
  %85 = load ptr, ptr %6, align 8, !tbaa !215
  %86 = getelementptr inbounds [3 x float], ptr %85, i64 2
  %87 = getelementptr inbounds [3 x float], ptr %86, i64 0, i64 2
  store float %84, ptr %87, align 4, !tbaa !111
  ret void
}

; Function Attrs: inlinehint mustprogress nounwind uwtable
define linkonce_odr noundef float @_ZSt3expf(float noundef %0) #0 comdat {
  %2 = alloca float, align 4
  store float %0, ptr %2, align 4, !tbaa !111
  %3 = load float, ptr %2, align 4, !tbaa !111
  %4 = call float @expf(float noundef %3) #21, !tbaa !114
  ret float %4
}

; Function Attrs: mustprogress nounwind uwtable
define noundef float @_ZNK3gmx8MttkData11etaVelocityEv(ptr noundef nonnull align 8 dereferenceable(152) %0) #2 align 2 {
  %2 = alloca ptr, align 8
  store ptr %0, ptr %2, align 8, !tbaa !4
  %3 = load ptr, ptr %2, align 8
  %4 = getelementptr inbounds nuw %"class.gmx::MttkData", ptr %3, i32 0, i32 2
  %5 = load float, ptr %4, align 4, !tbaa !713
  ret float %5
}

; Function Attrs: mustprogress uwtable
define void @_ZN3gmx14MttkBoxScaling8scaleBoxEv(ptr noundef nonnull align 8 dereferenceable(32) %0) #1 align 2 {
  %2 = alloca ptr, align 8
  %3 = alloca ptr, align 8
  store ptr %0, ptr %2, align 8, !tbaa !56
  %4 = load ptr, ptr %2, align 8
  call void @llvm.lifetime.start.p0(i64 8, ptr %3) #21
  %5 = getelementptr inbounds nuw %"class.gmx::MttkBoxScaling", ptr %4, i32 0, i32 2
  %6 = load ptr, ptr %5, align 8, !tbaa !1158
  %7 = call noundef ptr @_ZN3gmx19StatePropagatorData3boxEv(ptr noundef nonnull align 8 dereferenceable(632) %6)
  store ptr %7, ptr %3, align 8, !tbaa !215
  %8 = load ptr, ptr %3, align 8, !tbaa !215
  %9 = getelementptr inbounds nuw %"class.gmx::MttkBoxScaling", ptr %4, i32 0, i32 3
  %10 = load ptr, ptr %9, align 8, !tbaa !1159
  %11 = call noundef float @_ZNK3gmx8MttkData11etaVelocityEv(ptr noundef nonnull align 8 dereferenceable(152) %10)
  %12 = getelementptr inbounds nuw %"class.gmx::MttkBoxScaling", ptr %4, i32 0, i32 1
  %13 = load float, ptr %12, align 8, !tbaa !1156
  %14 = fmul float %11, %13
  %15 = call noundef float @_ZSt3expf(float noundef %14)
  %16 = load ptr, ptr %3, align 8, !tbaa !215
  call void @_ZL5msmulPA3_KffPA3_f(ptr noundef %8, float noundef %15, ptr noundef %16)
  %17 = load ptr, ptr %3, align 8, !tbaa !215
  %18 = getelementptr inbounds nuw %"class.gmx::MttkBoxScaling", ptr %4, i32 0, i32 3
  %19 = load ptr, ptr %18, align 8, !tbaa !1159
  %20 = call noundef float @_ZNK3gmx8MttkData11etaVelocityEv(ptr noundef nonnull align 8 dereferenceable(152) %19)
  %21 = getelementptr inbounds nuw %"class.gmx::MttkBoxScaling", ptr %4, i32 0, i32 3
  %22 = load ptr, ptr %21, align 8, !tbaa !1159
  %23 = call noundef ptr @_ZN3gmx8MttkData13boxVelocitiesEv(ptr noundef nonnull align 8 dereferenceable(152) %22)
  call void @_ZL5msmulPA3_KffPA3_f(ptr noundef %17, float noundef %20, ptr noundef %23)
  %24 = getelementptr inbounds nuw %"class.gmx::MttkBoxScaling", ptr %4, i32 0, i32 3
  %25 = load ptr, ptr %24, align 8, !tbaa !1159
  call void @_ZN3gmx8MttkData25calculateIntegralIfNeededEv(ptr noundef nonnull align 8 dereferenceable(152) %25)
  call void @llvm.lifetime.end.p0(i64 8, ptr %3) #21
  ret void
}