; Function Attrs: mustprogress uwtable
define void @_ZN3gmx14MttkBoxScaling8scaleBoxEv(ptr noundef nonnull readonly align 8 captures(none) dereferenceable(32) %0) local_unnamed_addr #1 align 2 {
  %2 = getelementptr inbounds nuw i8, ptr %0, i64 16
  %3 = load ptr, ptr %2, align 8, !tbaa !547
  %4 = tail call noundef ptr @_ZN3gmx19StatePropagatorData3boxEv(ptr noundef nonnull align 8 dereferenceable(632) %3)
  %5 = getelementptr inbounds nuw i8, ptr %0, i64 24
  %6 = load ptr, ptr %5, align 8, !tbaa !548
  %7 = getelementptr inbounds nuw i8, ptr %6, i64 12
  %8 = load float, ptr %7, align 4, !tbaa !328
  %9 = getelementptr inbounds nuw i8, ptr %0, i64 8
  %10 = load float, ptr %9, align 8, !tbaa !545
  %11 = fmul float %8, %10
  %12 = tail call noundef float @expf(float noundef %11) #36, !tbaa !68
  %13 = load float, ptr %4, align 4, !tbaa !115
  %14 = fmul float %12, %13
  store float %14, ptr %4, align 4, !tbaa !115
  %15 = getelementptr inbounds nuw i8, ptr %4, i64 4
  %16 = load float, ptr %15, align 4, !tbaa !115
  %17 = fmul float %12, %16
  store float %17, ptr %15, align 4, !tbaa !115
  %18 = getelementptr inbounds nuw i8, ptr %4, i64 8
  %19 = load float, ptr %18, align 4, !tbaa !115
  %20 = fmul float %12, %19
  store float %20, ptr %18, align 4, !tbaa !115
  %21 = getelementptr inbounds nuw i8, ptr %4, i64 12
  %22 = load float, ptr %21, align 4, !tbaa !115
  %23 = fmul float %12, %22
  store float %23, ptr %21, align 4, !tbaa !115
  %24 = getelementptr inbounds nuw i8, ptr %4, i64 16
  %25 = load float, ptr %24, align 4, !tbaa !115
  %26 = fmul float %12, %25
  store float %26, ptr %24, align 4, !tbaa !115
  %27 = getelementptr inbounds nuw i8, ptr %4, i64 20
  %28 = load float, ptr %27, align 4, !tbaa !115
  %29 = fmul float %12, %28
  store float %29, ptr %27, align 4, !tbaa !115
  %30 = getelementptr inbounds nuw i8, ptr %4, i64 24
  %31 = load float, ptr %30, align 4, !tbaa !115
  %32 = fmul float %12, %31
  store float %32, ptr %30, align 4, !tbaa !115
  %33 = getelementptr inbounds nuw i8, ptr %4, i64 28
  %34 = load float, ptr %33, align 4, !tbaa !115
  %35 = fmul float %12, %34
  store float %35, ptr %33, align 4, !tbaa !115
  %36 = getelementptr inbounds nuw i8, ptr %4, i64 32
  %37 = load float, ptr %36, align 4, !tbaa !115
  %38 = fmul float %12, %37
  store float %38, ptr %36, align 4, !tbaa !115
  %39 = load float, ptr %7, align 4, !tbaa !328
  %40 = getelementptr inbounds nuw i8, ptr %6, i64 52
  %41 = fmul float %14, %39
  store float %41, ptr %40, align 4, !tbaa !115
  %42 = load float, ptr %15, align 4, !tbaa !115
  %43 = fmul float %39, %42
  %44 = getelementptr inbounds nuw i8, ptr %6, i64 56
  store float %43, ptr %44, align 4, !tbaa !115
  %45 = load float, ptr %18, align 4, !tbaa !115
  %46 = fmul float %39, %45
  %47 = getelementptr inbounds nuw i8, ptr %6, i64 60
  store float %46, ptr %47, align 4, !tbaa !115
  %48 = load float, ptr %21, align 4, !tbaa !115
  %49 = fmul float %39, %48
  %50 = getelementptr inbounds nuw i8, ptr %6, i64 64
  store float %49, ptr %50, align 4, !tbaa !115
  %51 = load float, ptr %24, align 4, !tbaa !115
  %52 = fmul float %39, %51
  %53 = getelementptr inbounds nuw i8, ptr %6, i64 68
  store float %52, ptr %53, align 4, !tbaa !115
  %54 = load float, ptr %27, align 4, !tbaa !115
  %55 = fmul float %39, %54
  %56 = getelementptr inbounds nuw i8, ptr %6, i64 72
  store float %55, ptr %56, align 4, !tbaa !115
  %57 = load float, ptr %30, align 4, !tbaa !115
  %58 = fmul float %39, %57
  %59 = getelementptr inbounds nuw i8, ptr %6, i64 76
  store float %58, ptr %59, align 4, !tbaa !115
  %60 = load float, ptr %33, align 4, !tbaa !115
  %61 = fmul float %39, %60
  %62 = getelementptr inbounds nuw i8, ptr %6, i64 80
  store float %61, ptr %62, align 4, !tbaa !115
  %63 = load float, ptr %36, align 4, !tbaa !115
  %64 = fmul float %39, %63
  %65 = getelementptr inbounds nuw i8, ptr %6, i64 84
  store float %64, ptr %65, align 4, !tbaa !115
  tail call void @_ZN3gmx8MttkData25calculateIntegralIfNeededEv(ptr noundef nonnull align 8 dereferenceable(152) %6)
  ret void
}